target datalayout = "e-m:e-p270:32:32-p271:32:32-p272:64:64-i64:64-i128:128-f80:128-n8:16:32:64-S128"
target triple = "x86_64-pc-linux-gnu"

%"struct.Luau::NotNull" = type { ptr }
%"struct.Luau::NotNull.172" = type { ptr }
%"class.std::unique_ptr.402" = type { %"struct.std::__uniq_ptr_data.403" }
%"struct.std::__uniq_ptr_data.403" = type { %"class.std::__uniq_ptr_impl.404" }
%"class.std::__uniq_ptr_impl.404" = type { %"class.std::tuple.405" }
%"class.std::tuple.405" = type { %"struct.std::_Tuple_impl.406" }
%"struct.std::_Tuple_impl.406" = type { %"struct.std::_Tuple_impl.407", %"struct.std::_Head_base.409" }
%"struct.std::_Tuple_impl.407" = type { %"struct.std::_Head_base.408" }
%"struct.std::_Head_base.408" = type { ptr }
%"struct.std::_Head_base.409" = type { ptr }

@_ZN4Luau19EqSatSimplification10SimplifierC1ENS_7NotNullINS_9TypeArenaEEENS2_INS_12BuiltinTypesEEE = dso_local unnamed_addr alias void (ptr, ptr, ptr), ptr @_ZN4Luau19EqSatSimplification10SimplifierC2ENS_7NotNullINS_9TypeArenaEEENS2_INS_12BuiltinTypesEEE

; Function Attrs: mustprogress nounwind uwtable
define linkonce_odr dso_local void @_ZNSt10_Head_baseILm1EPFvPN4Luau19EqSatSimplification10SimplifierEELb0EEC2IS5_EEOT_(ptr noundef nonnull align 8 dereferenceable(8) %0, ptr noundef nonnull align 8 dereferenceable(8) %1) unnamed_addr #5 comdat align 2 {
  %3 = alloca ptr, align 8
  %4 = alloca ptr, align 8
  store ptr %0, ptr %3, align 8, !tbaa !2487
  store ptr %1, ptr %4, align 8, !tbaa !710
  %5 = load ptr, ptr %3, align 8
  %6 = getelementptr inbounds nuw %"struct.std::_Head_base.408", ptr %5, i32 0, i32 0
  %7 = load ptr, ptr %4, align 8, !tbaa !710
  %8 = load ptr, ptr %7, align 8, !tbaa !104
  store ptr %8, ptr %6, align 8, !tbaa !2489
  ret void
}

; Function Attrs: mustprogress nounwind uwtable
define linkonce_odr dso_local void @_ZNSt10_Head_baseILm0EPN4Luau19EqSatSimplification10SimplifierELb0EEC2IRS3_EEOT_(ptr noundef nonnull align 8 dereferenceable(8) %0, ptr noundef nonnull align 8 dereferenceable(8) %1) unnamed_addr #5 comdat align 2 {
  %3 = alloca ptr, align 8
  %4 = alloca ptr, align 8
  store ptr %0, ptr %3, align 8, !tbaa !2483
  store ptr %1, ptr %4, align 8, !tbaa !2477
  %5 = load ptr, ptr %3, align 8
  %6 = getelementptr inbounds nuw %"struct.std::_Head_base.409", ptr %5, i32 0, i32 0
  %7 = load ptr, ptr %4, align 8, !tbaa !2477
  %8 = load ptr, ptr %7, align 8, !tbaa !533
  store ptr %8, ptr %6, align 8, !tbaa !2485
  ret void
}

; Function Attrs: mustprogress uwtable
define linkonce_odr dso_local void @_ZNSt11_Tuple_implILm1EJPFvPN4Luau19EqSatSimplification10SimplifierEEEEC2IS5_EEOT_(ptr noundef nonnull align 8 dereferenceable(8) %0, ptr noundef nonnull align 8 dereferenceable(8) %1) unnamed_addr #6 comdat align 2 {
  %3 = alloca ptr, align 8
  %4 = alloca ptr, align 8
  store ptr %0, ptr %3, align 8, !tbaa !2481
  store ptr %1, ptr %4, align 8, !tbaa !710
  %5 = load ptr, ptr %3, align 8
  %6 = load ptr, ptr %4, align 8, !tbaa !710
  call void @_ZNSt10_Head_baseILm1EPFvPN4Luau19EqSatSimplification10SimplifierEELb0EEC2IS5_EEOT_(ptr noundef nonnull align 8 dereferenceable(8) %5, ptr noundef nonnull align 8 dereferenceable(8) %6)
  ret void
}

; Function Attrs: mustprogress uwtable
define linkonce_odr dso_local void @_ZNSt11_Tuple_implILm0EJPN4Luau19EqSatSimplification10SimplifierEPFvS3_EEEC2IRS3_JS5_EvEEOT_DpOT0_(ptr noundef nonnull align 8 dereferenceable(16) %0, ptr noundef nonnull align 8 dereferenceable(8) %1, ptr noundef nonnull align 8 dereferenceable(8) %2) unnamed_addr #6 comdat align 2 {
  %4 = alloca ptr, align 8
  %5 = alloca ptr, align 8
  %6 = alloca ptr, align 8
  store ptr %0, ptr %4, align 8, !tbaa !2479
  store ptr %1, ptr %5, align 8, !tbaa !2477
  store ptr %2, ptr %6, align 8, !tbaa !710
  %7 = load ptr, ptr %4, align 8
  %8 = load ptr, ptr %6, align 8, !tbaa !710
  call void @_ZNSt11_Tuple_implILm1EJPFvPN4Luau19EqSatSimplification10SimplifierEEEEC2IS5_EEOT_(ptr noundef nonnull align 8 dereferenceable(8) %7, ptr noundef nonnull align 8 dereferenceable(8) %8)
  %9 = getelementptr inbounds i8, ptr %7, i64 8
  %10 = load ptr, ptr %5, align 8, !tbaa !2477
  call void @_ZNSt10_Head_baseILm0EPN4Luau19EqSatSimplification10SimplifierELb0EEC2IRS3_EEOT_(ptr noundef nonnull align 8 dereferenceable(8) %9, ptr noundef nonnull align 8 dereferenceable(8) %10)
  ret void
}

; Function Attrs: mustprogress nounwind uwtable
define linkonce_odr dso_local void @_ZNSt5tupleIJPN4Luau19EqSatSimplification10SimplifierEPFvS3_EEEC2IRS3_S5_TnNSt9enable_ifIXclsr4_TCCIXntcl14__is_alloc_argIT_EEEEE29__is_implicitly_constructibleISA_T0_EEEbE4typeELb1EEEOSA_OSB_(ptr noundef nonnull align 8 dereferenceable(16) %0, ptr noundef nonnull align 8 dereferenceable(8) %1, ptr noundef nonnull align 8 dereferenceable(8) %2) unnamed_addr #5 comdat align 2 personality ptr @__gxx_personality_v0 {
  %4 = alloca ptr, align 8
  %5 = alloca ptr, align 8
  %6 = alloca ptr, align 8
  store ptr %0, ptr %4, align 8, !tbaa !2475
  store ptr %1, ptr %5, align 8, !tbaa !2477
  store ptr %2, ptr %6, align 8, !tbaa !710
  %7 = load ptr, ptr %4, align 8
  %8 = load ptr, ptr %5, align 8, !tbaa !2477
  %9 = load ptr, ptr %6, align 8, !tbaa !710
  invoke void @_ZNSt11_Tuple_implILm0EJPN4Luau19EqSatSimplification10SimplifierEPFvS3_EEEC2IRS3_JS5_EvEEOT_DpOT0_(ptr noundef nonnull align 8 dereferenceable(16) %7, ptr noundef nonnull align 8 dereferenceable(8) %8, ptr noundef nonnull align 8 dereferenceable(8) %9)
          to label %10 unwind label %11

10:                                               ; preds = %3
  ret void

11:                                               ; preds = %3
  %12 = landingpad { ptr, i32 }
          catch ptr null
  %13 = extractvalue { ptr, i32 } %12, 0
  call void @__clang_call_terminate(ptr %13) #25
  unreachable
}

; Function Attrs: mustprogress nounwind uwtable
define linkonce_odr dso_local void @_ZNSt15__uniq_ptr_implIN4Luau19EqSatSimplification10SimplifierEPFvPS2_EEC2IS5_EES3_OT_(ptr noundef nonnull align 8 dereferenceable(16) %0, ptr noundef %1, ptr noundef nonnull align 8 dereferenceable(8) %2) unnamed_addr #5 comdat align 2 {
  %4 = alloca ptr, align 8
  %5 = alloca ptr, align 8
  %6 = alloca ptr, align 8
  store ptr %0, ptr %4, align 8, !tbaa !2473
  store ptr %1, ptr %5, align 8, !tbaa !533
  store ptr %2, ptr %6, align 8, !tbaa !710
  %7 = load ptr, ptr %4, align 8
  %8 = getelementptr inbounds nuw %"class.std::__uniq_ptr_impl.404", ptr %7, i32 0, i32 0
  %9 = load ptr, ptr %6, align 8, !tbaa !710
  call void @_ZNSt5tupleIJPN4Luau19EqSatSimplification10SimplifierEPFvS3_EEEC2IRS3_S5_TnNSt9enable_ifIXclsr4_TCCIXntcl14__is_alloc_argIT_EEEEE29__is_implicitly_constructibleISA_T0_EEEbE4typeELb1EEEOSA_OSB_(ptr noundef nonnull align 8 dereferenceable(16) %8, ptr noundef nonnull align 8 dereferenceable(8) %5, ptr noundef nonnull align 8 dereferenceable(8) %9) #4
  ret void
}

; Function Attrs: noinline noreturn nounwind uwtable
define linkonce_odr hidden void @__clang_call_terminate(ptr noundef %0) #15 comdat {
  %2 = call ptr @__cxa_begin_catch(ptr %0) #4
  call void @_ZSt9terminatev() #25
  unreachable
}

; Function Attrs: inlinehint mustprogress uwtable
define linkonce_odr dso_local void @_ZNSt15__uniq_ptr_dataIN4Luau19EqSatSimplification10SimplifierEPFvPS2_ELb1ELb1EECI2St15__uniq_ptr_implIS2_S5_EIS5_EES3_OT_(ptr noundef nonnull align 8 dereferenceable(16) %0, ptr noundef %1, ptr noundef nonnull align 8 dereferenceable(8) %2) unnamed_addr #8 comdat align 2 {
  %4 = alloca ptr, align 8
  %5 = alloca ptr, align 8
  %6 = alloca ptr, align 8
  store ptr %0, ptr %4, align 8, !tbaa !2471
  store ptr %1, ptr %5, align 8, !tbaa !533
  store ptr %2, ptr %6, align 8, !tbaa !710
  %7 = load ptr, ptr %4, align 8
  %8 = load ptr, ptr %5, align 8, !tbaa !533
  %9 = load ptr, ptr %6, align 8
  call void @_ZNSt15__uniq_ptr_implIN4Luau19EqSatSimplification10SimplifierEPFvPS2_EEC2IS5_EES3_OT_(ptr noundef nonnull align 8 dereferenceable(16) %7, ptr noundef %8, ptr noundef nonnull align 8 dereferenceable(8) %9)
  ret void
}

; Function Attrs: mustprogress nounwind uwtable
define linkonce_odr dso_local void @_ZNSt10unique_ptrIN4Luau19EqSatSimplification10SimplifierEPFvPS2_EEC2IS5_vEES3_NSt9enable_ifIXntsr19is_lvalue_referenceIT_EE5valueEOS9_E4typeE(ptr noundef nonnull align 8 dereferenceable(16) %0, ptr noundef %1, ptr noundef nonnull align 8 dereferenceable(8) %2) unnamed_addr #5 comdat align 2 personality ptr @__gxx_personality_v0 {
  %4 = alloca ptr, align 8
  %5 = alloca ptr, align 8
  %6 = alloca ptr, align 8
  store ptr %0, ptr %4, align 8, !tbaa !708
  store ptr %1, ptr %5, align 8, !tbaa !533
  store ptr %2, ptr %6, align 8, !tbaa !710
  %7 = load ptr, ptr %4, align 8
  %8 = getelementptr inbounds nuw %"class.std::unique_ptr.402", ptr %7, i32 0, i32 0
  %9 = load ptr, ptr %5, align 8, !tbaa !533
  %10 = load ptr, ptr %6, align 8, !tbaa !710
  invoke void @_ZNSt15__uniq_ptr_dataIN4Luau19EqSatSimplification10SimplifierEPFvPS2_ELb1ELb1EECI2St15__uniq_ptr_implIS2_S5_EIS5_EES3_OT_(ptr noundef nonnull align 8 dereferenceable(16) %8, ptr noundef %9, ptr noundef nonnull align 8 dereferenceable(8) %10)
          to label %11 unwind label %12

11:                                               ; preds = %3
  ret void

12:                                               ; preds = %3
  %13 = landingpad { ptr, i32 }
          catch ptr null
  %14 = extractvalue { ptr, i32 } %13, 0
  call void @__clang_call_terminate(ptr %14) #25
  unreachable
}

; Function Attrs: mustprogress uwtable
define dso_local void @_ZN4Luau19EqSatSimplification13newSimplifierENS_7NotNullINS_9TypeArenaEEENS1_INS_12BuiltinTypesEEE(ptr dead_on_unwind noalias writable sret(%"class.std::unique_ptr.402") align 8 %0, ptr %1, ptr %2) #6 personality ptr @__gxx_personality_v0 {
  %4 = alloca ptr, align 8
  %5 = alloca %"struct.Luau::NotNull.172", align 8
  %6 = alloca %"struct.Luau::NotNull", align 8
  %7 = alloca %"struct.Luau::NotNull.172", align 8
  %8 = alloca %"struct.Luau::NotNull", align 8
  %9 = alloca ptr, align 8
  %10 = alloca i32, align 4
  %11 = alloca ptr, align 8
  store ptr %0, ptr %4, align 8
  %12 = getelementptr inbounds nuw %"struct.Luau::NotNull.172", ptr %5, i32 0, i32 0
  store ptr %1, ptr %12, align 8
  %13 = getelementptr inbounds nuw %"struct.Luau::NotNull", ptr %6, i32 0, i32 0
  store ptr %2, ptr %13, align 8
  %14 = call noalias noundef nonnull ptr @_Znwm(i64 noundef 376) #29
  call void @llvm.memcpy.p0.p0.i64(ptr align 8 %7, ptr align 8 %5, i64 8, i1 false), !tbaa.struct !321
  call void @llvm.memcpy.p0.p0.i64(ptr align 8 %8, ptr align 8 %6, i64 8, i1 false), !tbaa.struct !162
  %15 = getelementptr inbounds nuw %"struct.Luau::NotNull.172", ptr %7, i32 0, i32 0
  %16 = load ptr, ptr %15, align 8
  %17 = getelementptr inbounds nuw %"struct.Luau::NotNull", ptr %8, i32 0, i32 0
  %18 = load ptr, ptr %17, align 8
  invoke void @_ZN4Luau19EqSatSimplification10SimplifierC1ENS_7NotNullINS_9TypeArenaEEENS2_INS_12BuiltinTypesEEE(ptr noundef nonnull align 8 dereferenceable(376) %14, ptr %16, ptr %18)
          to label %19 unwind label %20

19:                                               ; preds = %3
  call void @llvm.lifetime.start.p0(i64 8, ptr %11) #4
  store ptr @_ZN4Luau19EqSatSimplificationL16deleteSimplifierEPNS0_10SimplifierE, ptr %11, align 8, !tbaa !104
  call void @_ZNSt10unique_ptrIN4Luau19EqSatSimplification10SimplifierEPFvPS2_EEC2IS5_vEES3_NSt9enable_ifIXntsr19is_lvalue_referenceIT_EE5valueEOS9_E4typeE(ptr noundef nonnull align 8 dereferenceable(16) %0, ptr noundef %14, ptr noundef nonnull align 8 dereferenceable(8) %11) #4
  call void @llvm.lifetime.end.p0(i64 8, ptr %11) #4
  ret void

20:                                               ; preds = %3
  %21 = landingpad { ptr, i32 }
          cleanup
  %22 = extractvalue { ptr, i32 } %21, 0
  store ptr %22, ptr %9, align 8
  %23 = extractvalue { ptr, i32 } %21, 1
  store i32 %23, ptr %10, align 4
  call void @_ZdlPvm(ptr noundef %14, i64 noundef 376) #30
  br label %24

24:                                               ; preds = %20
  %25 = load ptr, ptr %9, align 8
  %26 = load i32, ptr %10, align 4
  %27 = insertvalue { ptr, i32 } poison, ptr %25, 0
  %28 = insertvalue { ptr, i32 } %27, i32 %26, 1
  resume { ptr, i32 } %28
}