; Function Attrs: mustprogress uwtable
define dso_local void @_ZN4Luau19EqSatSimplification13newSimplifierENS_7NotNullINS_9TypeArenaEEENS1_INS_12BuiltinTypesEEE(ptr dead_on_unwind noalias writable writeonly sret(%"class.std::unique_ptr.402") align 8 captures(none) %0, ptr %1, ptr %2) local_unnamed_addr #5 personality ptr @__gxx_personality_v0 {
  %4 = tail call noalias noundef nonnull dereferenceable(376) ptr @_Znwm(i64 noundef 376) #34
  store ptr %1, ptr %4, align 8, !tbaa !544
  %5 = getelementptr inbounds nuw i8, ptr %4, i64 8
  store ptr %2, ptr %5, align 8, !tbaa !545
  %6 = getelementptr inbounds nuw i8, ptr %4, i64 24
  tail call void @llvm.memset.p0.i64(ptr noundef nonnull align 8 dereferenceable(48) %6, i8 0, i64 48, i1 false)
  %7 = getelementptr inbounds nuw i8, ptr %4, i64 72
  %8 = getelementptr inbounds nuw i8, ptr %4, i64 120
  store ptr %8, ptr %7, align 8, !tbaa !547
  %9 = getelementptr inbounds nuw i8, ptr %4, i64 80
  store i64 1, ptr %9, align 8, !tbaa !549
  %10 = getelementptr inbounds nuw i8, ptr %4, i64 88
  %11 = getelementptr inbounds nuw i8, ptr %4, i64 104
  tail call void @llvm.memset.p0.i64(ptr noundef nonnull align 8 dereferenceable(16) %10, i8 0, i64 16, i1 false)
  store float 1.000000e+00, ptr %11, align 8, !tbaa !195
  %12 = getelementptr inbounds nuw i8, ptr %4, i64 112
  tail call void @llvm.memset.p0.i64(ptr noundef nonnull align 8 dereferenceable(16) %12, i8 0, i64 16, i1 false)
  %13 = getelementptr inbounds nuw i8, ptr %4, i64 128
  %14 = getelementptr inbounds nuw i8, ptr %4, i64 176
  store ptr %14, ptr %13, align 8, !tbaa !550
  %15 = getelementptr inbounds nuw i8, ptr %4, i64 136
  store i64 1, ptr %15, align 8, !tbaa !552
  %16 = getelementptr inbounds nuw i8, ptr %4, i64 144
  %17 = getelementptr inbounds nuw i8, ptr %4, i64 160
  tail call void @llvm.memset.p0.i64(ptr noundef nonnull align 8 dereferenceable(16) %16, i8 0, i64 16, i1 false)
  store float 1.000000e+00, ptr %17, align 8, !tbaa !195
  %18 = getelementptr inbounds nuw i8, ptr %4, i64 168
  tail call void @llvm.memset.p0.i64(ptr noundef nonnull align 8 dereferenceable(40) %18, i8 0, i64 40, i1 false)
  %19 = getelementptr inbounds nuw i8, ptr %4, i64 208
  invoke void @_ZN4Luau9AllocatorC1Ev(ptr noundef nonnull align 8 dereferenceable(88) %19)
          to label %22 unwind label %.body

.body:                                            ; preds = %3
  %20 = landingpad { ptr, i32 }
          cleanup
  %21 = getelementptr inbounds nuw i8, ptr %4, i64 16
  tail call void @_ZN4Luau5EqSat6EGraphINS0_8LanguageIJNS_19EqSatSimplification4TNilENS3_8TBooleanENS3_7TNumberENS3_7TStringENS3_7TThreadENS3_12TTopFunctionENS3_9TTopTableENS3_9TTopClassENS3_7TBufferENS3_7TOpaqueENS3_8SBooleanENS3_7SStringENS3_9TFunctionENS3_6TTableENS3_14TImportedTableENS3_6TClassENS3_4TAnyENS3_6TErrorENS3_8TUnknownENS3_6TNeverENS3_5UnionENS3_12IntersectionENS3_8NegationENS3_8TTypeFunENS3_7InvalidENS3_9TNoRefineENS3_6TBoundEEEENS3_8SimplifyEED2Ev(ptr noundef nonnull align 8 dereferenceable(192) %21) #37
  tail call void @_ZdlPvm(ptr noundef nonnull %4, i64 noundef 376) #36
  resume { ptr, i32 } %20

22:                                               ; preds = %3
  %23 = getelementptr inbounds nuw i8, ptr %4, i64 224
  tail call void @llvm.memset.p0.i64(ptr noundef nonnull align 8 dereferenceable(40) %23, i8 0, i64 40, i1 false)
  %24 = getelementptr inbounds nuw i8, ptr %4, i64 272
  tail call void @llvm.memset.p0.i64(ptr noundef nonnull align 8 dereferenceable(24) %24, i8 0, i64 24, i1 false)
  %25 = getelementptr inbounds nuw i8, ptr %4, i64 296
  %26 = getelementptr inbounds nuw i8, ptr %4, i64 344
  store ptr %26, ptr %25, align 8, !tbaa !216
  %27 = getelementptr inbounds nuw i8, ptr %4, i64 304
  store i64 1, ptr %27, align 8, !tbaa !215
  %28 = getelementptr inbounds nuw i8, ptr %4, i64 312
  %29 = getelementptr inbounds nuw i8, ptr %4, i64 328
  tail call void @llvm.memset.p0.i64(ptr noundef nonnull align 8 dereferenceable(16) %28, i8 0, i64 16, i1 false)
  store float 1.000000e+00, ptr %29, align 8, !tbaa !195
  %30 = getelementptr inbounds nuw i8, ptr %4, i64 336
  tail call void @llvm.memset.p0.i64(ptr noundef nonnull align 8 dereferenceable(40) %30, i8 0, i64 40, i1 false)
  store ptr @_ZN4Luau19EqSatSimplificationL16deleteSimplifierEPNS0_10SimplifierE, ptr %0, align 8, !tbaa !930
  %31 = getelementptr inbounds nuw i8, ptr %0, i64 8
  store ptr %4, ptr %31, align 8, !tbaa !932
  ret void
}